target datalayout = "e-m:e-p270:32:32-p271:32:32-p272:64:64-i64:64-i128:128-f80:128-n8:16:32:64-S128"
target triple = "x86_64-pc-linux-gnu"

; Function Attrs: nounwind uwtable
define internal i32 @hwp5_cb(ptr noundef %0, i32 noundef %1, ptr noundef %2, ptr noundef %3) #0 {
  %5 = alloca i32, align 4
  %6 = alloca ptr, align 8
  %7 = alloca i32, align 4
  %8 = alloca ptr, align 8
  %9 = alloca ptr, align 8
  store ptr %0, ptr %6, align 8, !tbaa !29
  store i32 %1, ptr %7, align 4, !tbaa !28
  store ptr %2, ptr %8, align 8, !tbaa !41
  store ptr %3, ptr %9, align 8, !tbaa !3
  %10 = load i32, ptr %7, align 4, !tbaa !28
  %11 = icmp slt i32 %10, 0
  br i1 %11, label %15, label %12

12:                                               ; preds = %4
  %13 = load ptr, ptr %9, align 8, !tbaa !3
  %14 = icmp ne ptr %13, null
  br i1 %14, label %16, label %15

15:                                               ; preds = %12, %4
  store i32 2, ptr %5, align 4
  br label %21

16:                                               ; preds = %12
  %17 = load i32, ptr %7, align 4, !tbaa !28
  %18 = load ptr, ptr %8, align 8, !tbaa !41
  %19 = load ptr, ptr %9, align 8, !tbaa !3
  %20 = call i32 @cli_magic_scan_desc(i32 noundef %17, ptr noundef %18, ptr noundef %19, ptr noundef null, i32 noundef 0)
  store i32 %20, ptr %5, align 4
  br label %21

21:                                               ; preds = %16, %15
  %22 = load i32, ptr %5, align 4
  ret i32 %22
}